; Function Attrs: mustprogress uwtable
define void @_ZNK6casadi9Sqpmethod8free_memEPv(ptr noundef nonnull align 8 dereferenceable(2386) %0, ptr noundef %1) unnamed_addr #4 align 2 {
  %3 = getelementptr inbounds nuw i8, ptr %1, i64 560
  %4 = load i32, ptr %3, align 8, !tbaa !266
  %5 = icmp sgt i32 %4, -1
  br i1 %5, label %6, label %8

6:                                                ; preds = %2
  %7 = getelementptr inbounds nuw i8, ptr %0, i64 2024
  tail call void @_ZNK6casadi8Function7releaseEi(ptr noundef nonnull align 8 dereferenceable(8) %7, i32 noundef %4)
  br label %8

8:                                                ; preds = %6, %2
  tail call void @_ZN6casadi12OracleMemoryD2Ev(ptr noundef nonnull align 8 dereferenceable(604) %1) #28
  tail call void @_ZdlPvm(ptr noundef nonnull %1, i64 noundef 608) #29
  ret void
}